target datalayout = "e-m:e-p270:32:32-p271:32:32-p272:64:64-i64:64-i128:128-f80:128-n8:16:32:64-S128"
target triple = "x86_64-pc-linux-gnu"

; Function Attrs: nounwind uwtable
define internal void @hScale8To19_c(ptr noundef %0, ptr noundef %1, i32 noundef %2, ptr noundef %3, ptr noundef %4, ptr noundef %5, i32 noundef %6) #0 {
  %8 = alloca ptr, align 8
  %9 = alloca ptr, align 8
  %10 = alloca i32, align 4
  %11 = alloca ptr, align 8
  %12 = alloca ptr, align 8
  %13 = alloca ptr, align 8
  %14 = alloca i32, align 4
  %15 = alloca i32, align 4
  %16 = alloca ptr, align 8
  %17 = alloca i32, align 4
  %18 = alloca i32, align 4
  %19 = alloca i32, align 4
  store ptr %0, ptr %8, align 8, !tbaa !4
  store ptr %1, ptr %9, align 8, !tbaa !104
  store i32 %2, ptr %10, align 4, !tbaa !14
  store ptr %3, ptr %11, align 8, !tbaa !60
  store ptr %4, ptr %12, align 8, !tbaa !104
  store ptr %5, ptr %13, align 8, !tbaa !12
  store i32 %6, ptr %14, align 4, !tbaa !14
  call void @llvm.lifetime.start.p0(i64 4, ptr %15) #11
  call void @llvm.lifetime.start.p0(i64 8, ptr %16) #11
  %20 = load ptr, ptr %9, align 8, !tbaa !104
  store ptr %20, ptr %16, align 8, !tbaa !12
  store i32 0, ptr %15, align 4, !tbaa !14
  br label %21

21:                                               ; preds = %74, %7
  %22 = load i32, ptr %15, align 4, !tbaa !14
  %23 = load i32, ptr %10, align 4, !tbaa !14
  %24 = icmp slt i32 %22, %23
  br i1 %24, label %25, label %77

25:                                               ; preds = %21
  call void @llvm.lifetime.start.p0(i64 4, ptr %17) #11
  call void @llvm.lifetime.start.p0(i64 4, ptr %18) #11
  %26 = load ptr, ptr %13, align 8, !tbaa !12
  %27 = load i32, ptr %15, align 4, !tbaa !14
  %28 = sext i32 %27 to i64
  %29 = getelementptr inbounds i32, ptr %26, i64 %28
  %30 = load i32, ptr %29, align 4, !tbaa !14
  store i32 %30, ptr %18, align 4, !tbaa !14
  call void @llvm.lifetime.start.p0(i64 4, ptr %19) #11
  store i32 0, ptr %19, align 4, !tbaa !14
  store i32 0, ptr %17, align 4, !tbaa !14
  br label %31

31:                                               ; preds = %57, %25
  %32 = load i32, ptr %17, align 4, !tbaa !14
  %33 = load i32, ptr %14, align 4, !tbaa !14
  %34 = icmp slt i32 %32, %33
  br i1 %34, label %35, label %60

35:                                               ; preds = %31
  %36 = load ptr, ptr %11, align 8, !tbaa !60
  %37 = load i32, ptr %18, align 4, !tbaa !14
  %38 = load i32, ptr %17, align 4, !tbaa !14
  %39 = add nsw i32 %37, %38
  %40 = sext i32 %39 to i64
  %41 = getelementptr inbounds i8, ptr %36, i64 %40
  %42 = load i8, ptr %41, align 1, !tbaa !91
  %43 = zext i8 %42 to i32
  %44 = load ptr, ptr %12, align 8, !tbaa !104
  %45 = load i32, ptr %14, align 4, !tbaa !14
  %46 = load i32, ptr %15, align 4, !tbaa !14
  %47 = mul nsw i32 %45, %46
  %48 = load i32, ptr %17, align 4, !tbaa !14
  %49 = add nsw i32 %47, %48
  %50 = sext i32 %49 to i64
  %51 = getelementptr inbounds i16, ptr %44, i64 %50
  %52 = load i16, ptr %51, align 2, !tbaa !102
  %53 = sext i16 %52 to i32
  %54 = mul nsw i32 %43, %53
  %55 = load i32, ptr %19, align 4, !tbaa !14
  %56 = add nsw i32 %55, %54
  store i32 %56, ptr %19, align 4, !tbaa !14
  br label %57

57:                                               ; preds = %35
  %58 = load i32, ptr %17, align 4, !tbaa !14
  %59 = add nsw i32 %58, 1
  store i32 %59, ptr %17, align 4, !tbaa !14
  br label %31, !llvm.loop !221

60:                                               ; preds = %31
  %61 = load i32, ptr %19, align 4, !tbaa !14
  %62 = ashr i32 %61, 3
  %63 = icmp sgt i32 %62, 524287
  br i1 %63, label %64, label %65

64:                                               ; preds = %60
  br label %68

65:                                               ; preds = %60
  %66 = load i32, ptr %19, align 4, !tbaa !14
  %67 = ashr i32 %66, 3
  br label %68

68:                                               ; preds = %65, %64
  %69 = phi i32 [ 524287, %64 ], [ %67, %65 ]
  %70 = load ptr, ptr %16, align 8, !tbaa !12
  %71 = load i32, ptr %15, align 4, !tbaa !14
  %72 = sext i32 %71 to i64
  %73 = getelementptr inbounds i32, ptr %70, i64 %72
  store i32 %69, ptr %73, align 4, !tbaa !14
  call void @llvm.lifetime.end.p0(i64 4, ptr %19) #11
  call void @llvm.lifetime.end.p0(i64 4, ptr %18) #11
  call void @llvm.lifetime.end.p0(i64 4, ptr %17) #11
  br label %74

74:                                               ; preds = %68
  %75 = load i32, ptr %15, align 4, !tbaa !14
  %76 = add nsw i32 %75, 1
  store i32 %76, ptr %15, align 4, !tbaa !14
  br label %21, !llvm.loop !222

77:                                               ; preds = %21
  call void @llvm.lifetime.end.p0(i64 8, ptr %16) #11
  call void @llvm.lifetime.end.p0(i64 4, ptr %15) #11
  ret void
}