; Function Attrs: nofree norecurse nosync nounwind memory(argmem: readwrite) uwtable
define internal void @hScale8To19_c(ptr readnone captures(none) %0, ptr noundef writeonly captures(none) %1, i32 noundef %2, ptr noundef readonly captures(none) %3, ptr noundef readonly captures(none) %4, ptr noundef readonly captures(none) %5, i32 noundef %6) #6 {
  %8 = icmp sgt i32 %2, 0
  br i1 %8, label %.lr.ph27, label %._crit_edge28

.lr.ph27:                                         ; preds = %7
  %9 = icmp sgt i32 %6, 0
  br i1 %9, label %.lr.ph.us.preheader, label %.lr.ph27.split.preheader

.lr.ph27.split.preheader:                         ; preds = %.lr.ph27
  %10 = zext nneg i32 %2 to i64
  %11 = shl nuw nsw i64 %10, 2
  tail call void @llvm.memset.p0.i64(ptr align 4 %1, i8 0, i64 %11, i1 false), !tbaa !49
  br label %._crit_edge28

.lr.ph.us.preheader:                              ; preds = %.lr.ph27
  %12 = zext nneg i32 %6 to i64
  %wide.trip.count35 = zext nneg i32 %2 to i64
  %wide.trip.count = zext nneg i32 %6 to i64
  br label %.lr.ph.us

.lr.ph.us:                                        ; preds = %.lr.ph.us.preheader, %._crit_edge.us
  %indvars.iv32 = phi i64 [ 0, %.lr.ph.us.preheader ], [ %indvars.iv.next33, %._crit_edge.us ]
  %13 = getelementptr inbounds nuw i32, ptr %5, i64 %indvars.iv32
  %14 = load i32, ptr %13, align 4, !tbaa !49
  %15 = mul nuw nsw i64 %indvars.iv32, %12
  %16 = sext i32 %14 to i64
  %invariant.gep = getelementptr i8, ptr %3, i64 %16
  %invariant.gep37 = getelementptr inbounds nuw i16, ptr %4, i64 %15
  br label %17

17:                                               ; preds = %.lr.ph.us, %17
  %indvars.iv = phi i64 [ 0, %.lr.ph.us ], [ %indvars.iv.next, %17 ]
  %.024.us = phi i32 [ 0, %.lr.ph.us ], [ %23, %17 ]
  %gep = getelementptr i8, ptr %invariant.gep, i64 %indvars.iv
  %18 = load i8, ptr %gep, align 1, !tbaa !82
  %19 = zext i8 %18 to i32
  %gep38 = getelementptr inbounds nuw i16, ptr %invariant.gep37, i64 %indvars.iv
  %20 = load i16, ptr %gep38, align 2, !tbaa !94
  %21 = sext i16 %20 to i32
  %22 = mul nsw i32 %21, %19
  %23 = add nsw i32 %22, %.024.us
  %indvars.iv.next = add nuw nsw i64 %indvars.iv, 1
  %exitcond.not = icmp eq i64 %indvars.iv.next, %wide.trip.count
  br i1 %exitcond.not, label %._crit_edge.us, label %17, !llvm.loop !209

._crit_edge.us:                                   ; preds = %17
  %24 = ashr i32 %23, 3
  %25 = tail call i32 @llvm.smin.i32(i32 %24, i32 524287)
  %26 = getelementptr inbounds nuw i32, ptr %1, i64 %indvars.iv32
  store i32 %25, ptr %26, align 4, !tbaa !49
  %indvars.iv.next33 = add nuw nsw i64 %indvars.iv32, 1
  %exitcond36.not = icmp eq i64 %indvars.iv.next33, %wide.trip.count35
  br i1 %exitcond36.not, label %._crit_edge28, label %.lr.ph.us, !llvm.loop !210

._crit_edge28:                                    ; preds = %._crit_edge.us, %.lr.ph27.split.preheader, %7
  ret void
}